target datalayout = "e-m:e-p270:32:32-p271:32:32-p272:64:64-i64:64-i128:128-f80:128-n8:16:32:64-S128"
target triple = "x86_64-pc-linux-gnu"

%struct.pmix_class_t = type { ptr, ptr, ptr, ptr, i32, i32, ptr, ptr, i64 }
%struct.pmix_list_t = type { %struct.pmix_object_t, %struct.pmix_list_item_t, i64 }
%struct.pmix_object_t = type { %union.pthread_mutex_t, ptr, i32, %struct.pmix_tma }
%union.pthread_mutex_t = type { %struct.__pthread_mutex_s }
%struct.__pthread_mutex_s = type { i32, i32, i32, i32, i32, i16, i16, %struct.__pthread_internal_list }
%struct.__pthread_internal_list = type { ptr, ptr }
%struct.pmix_tma = type { ptr, ptr, ptr, ptr, ptr, ptr, ptr, ptr }
%struct.pmix_list_item_t = type { %struct.pmix_object_t, ptr, ptr, i32 }
%struct.timeval = type { i64, i64 }
%struct.pmix_psensor_base_t = type { %struct.pmix_list_t, ptr, i8 }
%struct.event = type { %struct.event_callback, %union.anon.0, i32, ptr, %union.anon.2, i16, i16, %struct.timeval }
%struct.event_callback = type { %struct.anon, i16, i8, i8, %union.anon, ptr }
%struct.anon = type { ptr, ptr }
%union.anon = type { ptr }
%union.anon.0 = type { %struct.anon.1 }
%struct.anon.1 = type { ptr, ptr }
%union.anon.2 = type { %struct.anon.3 }
%struct.anon.3 = type { %struct.anon.4, %struct.timeval }
%struct.anon.4 = type { ptr, ptr }
%struct.file_caddy_t = type { %struct.pmix_object_t, %struct.event, ptr, ptr }

@file_caddy_t_class = global %struct.pmix_class_t { ptr @.str.1, ptr @pmix_object_t_class, ptr @cd_con, ptr @cd_des, i32 0, i32 0, ptr null, ptr null, i64 264 }, align 8
@.str.2 = private unnamed_addr constant [21 x i8] c"pthread_mutex_lock()\00", align 1
@pmix_psensor_base = external global %struct.pmix_psensor_base_t, align 8
@pmix_class_init_epoch = external global i32, align 4

; Function Attrs: inlinehint nounwind uwtable
define internal void @pmix_obj_run_constructors(ptr noundef %0) #3 {
  %2 = alloca ptr, align 8
  %3 = alloca ptr, align 8
  store ptr %0, ptr %2, align 8, !tbaa !72
  call void @llvm.lifetime.start.p0(i64 8, ptr %3) #11
  %4 = load ptr, ptr %2, align 8, !tbaa !72
  %5 = getelementptr inbounds nuw %struct.pmix_object_t, ptr %4, i32 0, i32 1
  %6 = load ptr, ptr %5, align 8, !tbaa !93
  %7 = getelementptr inbounds nuw %struct.pmix_class_t, ptr %6, i32 0, i32 6
  %8 = load ptr, ptr %7, align 8, !tbaa !112
  store ptr %8, ptr %3, align 8, !tbaa !57
  br label %9

9:                                                ; preds = %13, %1
  %10 = load ptr, ptr %3, align 8, !tbaa !57
  %11 = load ptr, ptr %10, align 8, !tbaa !57
  %12 = icmp ne ptr null, %11
  br i1 %12, label %13, label %19

13:                                               ; preds = %9
  %14 = load ptr, ptr %3, align 8, !tbaa !57
  %15 = load ptr, ptr %14, align 8, !tbaa !57
  %16 = load ptr, ptr %2, align 8, !tbaa !72
  call void %15(ptr noundef %16)
  %17 = load ptr, ptr %3, align 8, !tbaa !57
  %18 = getelementptr inbounds nuw ptr, ptr %17, i32 1
  store ptr %18, ptr %3, align 8, !tbaa !57
  br label %9, !llvm.loop !113

19:                                               ; preds = %9
  call void @llvm.lifetime.end.p0(i64 8, ptr %3) #11
  ret void
}

; Function Attrs: inlinehint nounwind uwtable
define internal ptr @pmix_tma_malloc(ptr noundef %0, i64 noundef %1) #3 {
  %3 = alloca ptr, align 8
  %4 = alloca ptr, align 8
  %5 = alloca i64, align 8
  store ptr %0, ptr %4, align 8, !tbaa !97
  store i64 %1, ptr %5, align 8, !tbaa !12
  %6 = load ptr, ptr %4, align 8, !tbaa !97
  %7 = icmp ne ptr null, %6
  br i1 %7, label %8, label %15

8:                                                ; preds = %2
  %9 = load ptr, ptr %4, align 8, !tbaa !97
  %10 = getelementptr inbounds nuw %struct.pmix_tma, ptr %9, i32 0, i32 0
  %11 = load ptr, ptr %10, align 8, !tbaa !111
  %12 = load ptr, ptr %4, align 8, !tbaa !97
  %13 = load i64, ptr %5, align 8, !tbaa !12
  %14 = call ptr %11(ptr noundef %12, i64 noundef %13)
  store ptr %14, ptr %3, align 8
  br label %18

15:                                               ; preds = %2
  %16 = load i64, ptr %5, align 8, !tbaa !12
  %17 = call noalias ptr @malloc(i64 noundef %16) #15
  store ptr %17, ptr %3, align 8
  br label %18

18:                                               ; preds = %15, %8
  %19 = load ptr, ptr %3, align 8
  ret ptr %19
}

; Function Attrs: inlinehint nounwind uwtable
define internal void @pmix_atomic_wmb() #3 {
  fence release
  ret void
}

; Function Attrs: alwaysinline nounwind uwtable
define internal i32 @pmix_obj_update(ptr noundef %0, i32 noundef %1) #2 {
  %3 = alloca ptr, align 8
  %4 = alloca i32, align 4
  %5 = alloca i32, align 4
  store ptr %0, ptr %3, align 8, !tbaa !72
  store i32 %1, ptr %4, align 4, !tbaa !8
  call void @llvm.lifetime.start.p0(i64 4, ptr %5) #11
  %6 = load ptr, ptr %3, align 8, !tbaa !72
  %7 = getelementptr inbounds nuw %struct.pmix_object_t, ptr %6, i32 0, i32 0
  %8 = call i32 @pthread_mutex_lock(ptr noundef %7) #11
  store i32 %8, ptr %5, align 4, !tbaa !8
  %9 = load i32, ptr %5, align 4, !tbaa !8
  %10 = icmp eq i32 %9, 35
  br i1 %10, label %11, label %14

11:                                               ; preds = %2
  %12 = load i32, ptr %5, align 4, !tbaa !8
  %13 = call ptr @__errno_location() #13
  store i32 %12, ptr %13, align 4, !tbaa !8
  call void @perror(ptr noundef @.str.2)
  call void @abort() #14
  unreachable

14:                                               ; preds = %2
  %15 = load i32, ptr %4, align 4, !tbaa !8
  %16 = load ptr, ptr %3, align 8, !tbaa !72
  %17 = getelementptr inbounds nuw %struct.pmix_object_t, ptr %16, i32 0, i32 2
  %18 = load i32, ptr %17, align 8, !tbaa !92
  %19 = add nsw i32 %18, %15
  store i32 %19, ptr %17, align 8, !tbaa !92
  store i32 %19, ptr %5, align 4, !tbaa !8
  %20 = load ptr, ptr %3, align 8, !tbaa !72
  %21 = getelementptr inbounds nuw %struct.pmix_object_t, ptr %20, i32 0, i32 0
  %22 = call i32 @pthread_mutex_unlock(ptr noundef %21) #11
  %23 = load i32, ptr %5, align 4, !tbaa !8
  call void @llvm.lifetime.end.p0(i64 4, ptr %5) #11
  ret i32 %23
}

; Function Attrs: inlinehint nounwind uwtable
define internal ptr @pmix_obj_new_tma(ptr noundef %0, ptr noundef %1) #3 {
  %3 = alloca ptr, align 8
  %4 = alloca ptr, align 8
  %5 = alloca ptr, align 8
  store ptr %0, ptr %3, align 8, !tbaa !100
  store ptr %1, ptr %4, align 8, !tbaa !97
  call void @llvm.lifetime.start.p0(i64 8, ptr %5) #11
  %6 = load ptr, ptr %4, align 8, !tbaa !97
  %7 = load ptr, ptr %3, align 8, !tbaa !100
  %8 = getelementptr inbounds nuw %struct.pmix_class_t, ptr %7, i32 0, i32 8
  %9 = load i64, ptr %8, align 8, !tbaa !101
  %10 = call ptr @pmix_tma_malloc(ptr noundef %6, i64 noundef %9)
  store ptr %10, ptr %5, align 8, !tbaa !72
  %11 = load i32, ptr @pmix_class_init_epoch, align 4, !tbaa !8
  %12 = load ptr, ptr %3, align 8, !tbaa !100
  %13 = getelementptr inbounds nuw %struct.pmix_class_t, ptr %12, i32 0, i32 4
  %14 = load i32, ptr %13, align 8, !tbaa !102
  %15 = icmp ne i32 %11, %14
  br i1 %15, label %16, label %18

16:                                               ; preds = %2
  %17 = load ptr, ptr %3, align 8, !tbaa !100
  call void @pmix_class_initialize(ptr noundef %17)
  br label %18

18:                                               ; preds = %16, %2
  %19 = load ptr, ptr %5, align 8, !tbaa !72
  %20 = icmp ne ptr null, %19
  br i1 %20, label %21, label %60

21:                                               ; preds = %18
  %22 = load ptr, ptr %5, align 8, !tbaa !72
  %23 = getelementptr inbounds nuw %struct.pmix_object_t, ptr %22, i32 0, i32 0
  %24 = call i32 @pthread_mutex_init(ptr noundef %23, ptr noundef null) #11
  %25 = load ptr, ptr %3, align 8, !tbaa !100
  %26 = load ptr, ptr %5, align 8, !tbaa !72
  %27 = getelementptr inbounds nuw %struct.pmix_object_t, ptr %26, i32 0, i32 1
  store ptr %25, ptr %27, align 8, !tbaa !93
  %28 = load ptr, ptr %5, align 8, !tbaa !72
  %29 = getelementptr inbounds nuw %struct.pmix_object_t, ptr %28, i32 0, i32 2
  store i32 1, ptr %29, align 8, !tbaa !92
  %30 = load ptr, ptr %4, align 8, !tbaa !97
  %31 = icmp eq ptr null, %30
  br i1 %31, label %32, label %54

32:                                               ; preds = %21
  %33 = load ptr, ptr %5, align 8, !tbaa !72
  %34 = getelementptr inbounds nuw %struct.pmix_object_t, ptr %33, i32 0, i32 3
  %35 = getelementptr inbounds nuw %struct.pmix_tma, ptr %34, i32 0, i32 0
  store ptr null, ptr %35, align 8, !tbaa !103
  %36 = load ptr, ptr %5, align 8, !tbaa !72
  %37 = getelementptr inbounds nuw %struct.pmix_object_t, ptr %36, i32 0, i32 3
  %38 = getelementptr inbounds nuw %struct.pmix_tma, ptr %37, i32 0, i32 1
  store ptr null, ptr %38, align 8, !tbaa !104
  %39 = load ptr, ptr %5, align 8, !tbaa !72
  %40 = getelementptr inbounds nuw %struct.pmix_object_t, ptr %39, i32 0, i32 3
  %41 = getelementptr inbounds nuw %struct.pmix_tma, ptr %40, i32 0, i32 2
  store ptr null, ptr %41, align 8, !tbaa !105
  %42 = load ptr, ptr %5, align 8, !tbaa !72
  %43 = getelementptr inbounds nuw %struct.pmix_object_t, ptr %42, i32 0, i32 3
  %44 = getelementptr inbounds nuw %struct.pmix_tma, ptr %43, i32 0, i32 3
  store ptr null, ptr %44, align 8, !tbaa !106
  %45 = load ptr, ptr %5, align 8, !tbaa !72
  %46 = getelementptr inbounds nuw %struct.pmix_object_t, ptr %45, i32 0, i32 3
  %47 = getelementptr inbounds nuw %struct.pmix_tma, ptr %46, i32 0, i32 5
  store ptr null, ptr %47, align 8, !tbaa !74
  %48 = load ptr, ptr %5, align 8, !tbaa !72
  %49 = getelementptr inbounds nuw %struct.pmix_object_t, ptr %48, i32 0, i32 3
  %50 = getelementptr inbounds nuw %struct.pmix_tma, ptr %49, i32 0, i32 6
  store ptr null, ptr %50, align 8, !tbaa !107
  %51 = load ptr, ptr %5, align 8, !tbaa !72
  %52 = getelementptr inbounds nuw %struct.pmix_object_t, ptr %51, i32 0, i32 3
  %53 = getelementptr inbounds nuw %struct.pmix_tma, ptr %52, i32 0, i32 7
  store ptr null, ptr %53, align 8, !tbaa !108
  br label %58

54:                                               ; preds = %21
  %55 = load ptr, ptr %5, align 8, !tbaa !72
  %56 = getelementptr inbounds nuw %struct.pmix_object_t, ptr %55, i32 0, i32 3
  %57 = load ptr, ptr %4, align 8, !tbaa !97
  call void @llvm.memcpy.p0.p0.i64(ptr align 8 %56, ptr align 8 %57, i64 64, i1 false), !tbaa.struct !109
  br label %58

58:                                               ; preds = %54, %32
  %59 = load ptr, ptr %5, align 8, !tbaa !72
  call void @pmix_obj_run_constructors(ptr noundef %59)
  br label %60

60:                                               ; preds = %58, %18
  %61 = load ptr, ptr %5, align 8, !tbaa !72
  call void @llvm.lifetime.end.p0(i64 8, ptr %5) #11
  ret ptr %61
}

; Function Attrs: nounwind uwtable
define internal i32 @stop(ptr noundef %0, ptr noundef %1) #0 {
  %3 = alloca ptr, align 8
  %4 = alloca ptr, align 8
  %5 = alloca ptr, align 8
  store ptr %0, ptr %3, align 8, !tbaa !3
  store ptr %1, ptr %4, align 8, !tbaa !77
  call void @llvm.lifetime.start.p0(i64 8, ptr %5) #11
  %6 = call ptr @pmix_obj_new_tma(ptr noundef @file_caddy_t_class, ptr noundef null)
  store ptr %6, ptr %5, align 8, !tbaa !57
  %7 = load ptr, ptr %3, align 8, !tbaa !3
  %8 = call i32 @pmix_obj_update(ptr noundef %7, i32 noundef 1)
  %9 = load ptr, ptr %3, align 8, !tbaa !3
  %10 = load ptr, ptr %5, align 8, !tbaa !57
  %11 = getelementptr inbounds nuw %struct.file_caddy_t, ptr %10, i32 0, i32 2
  store ptr %9, ptr %11, align 8, !tbaa !78
  %12 = load ptr, ptr %4, align 8, !tbaa !77
  %13 = icmp ne ptr null, %12
  br i1 %13, label %14, label %19

14:                                               ; preds = %2
  %15 = load ptr, ptr %4, align 8, !tbaa !77
  %16 = call noalias ptr @strdup(ptr noundef %15) #11
  %17 = load ptr, ptr %5, align 8, !tbaa !57
  %18 = getelementptr inbounds nuw %struct.file_caddy_t, ptr %17, i32 0, i32 3
  store ptr %16, ptr %18, align 8, !tbaa !80
  br label %19

19:                                               ; preds = %14, %2
  %20 = load ptr, ptr %5, align 8, !tbaa !57
  %21 = getelementptr inbounds nuw %struct.file_caddy_t, ptr %20, i32 0, i32 1
  %22 = load ptr, ptr getelementptr inbounds nuw (%struct.pmix_psensor_base_t, ptr @pmix_psensor_base, i32 0, i32 1), align 8, !tbaa !75
  %23 = load ptr, ptr %5, align 8, !tbaa !57
  %24 = call i32 @pmix_event_assign(ptr noundef %21, ptr noundef %22, i32 noundef -1, i16 noundef signext 4, ptr noundef @del_tracker, ptr noundef %23)
  call void @pmix_atomic_wmb()
  %25 = load ptr, ptr %5, align 8, !tbaa !57
  %26 = getelementptr inbounds nuw %struct.file_caddy_t, ptr %25, i32 0, i32 1
  call void @event_active(ptr noundef %26, i32 noundef 4, i16 noundef signext 1)
  call void @llvm.lifetime.end.p0(i64 8, ptr %5) #11
  ret i32 0
}