; Function Attrs: nounwind uwtable
define internal noundef i32 @stop(ptr noundef %0, ptr noundef readonly captures(address_is_null) %1) #0 {
  %3 = load i64, ptr getelementptr inbounds nuw (i8, ptr @file_caddy_t_class, i64 56), align 8, !tbaa !52
  %4 = tail call noalias noundef ptr @malloc(i64 noundef %3) #15
  %5 = load i32, ptr @pmix_class_init_epoch, align 4, !tbaa !54
  %6 = load i32, ptr getelementptr inbounds nuw (i8, ptr @file_caddy_t_class, i64 32), align 8, !tbaa !55
  %.not.i = icmp eq i32 %5, %6
  br i1 %.not.i, label %8, label %7

7:                                                ; preds = %2
  tail call void @pmix_class_initialize(ptr noundef nonnull @file_caddy_t_class) #13
  br label %8

8:                                                ; preds = %7, %2
  %.not22.i = icmp eq ptr %4, null
  br i1 %.not22.i, label %pmix_obj_new_tma.exit, label %9

9:                                                ; preds = %8
  %10 = tail call i32 @pthread_mutex_init(ptr noundef nonnull %4, ptr noundef null) #13
  %11 = getelementptr inbounds nuw i8, ptr %4, i64 40
  store ptr @file_caddy_t_class, ptr %11, align 8, !tbaa !56
  %12 = getelementptr inbounds nuw i8, ptr %4, i64 48
  store i32 1, ptr %12, align 8, !tbaa !57
  %13 = getelementptr inbounds nuw i8, ptr %4, i64 56
  %14 = getelementptr inbounds nuw i8, ptr %4, i64 96
  tail call void @llvm.memset.p0.i64(ptr noundef nonnull align 8 dereferenceable(32) %13, i8 0, i64 32, i1 false)
  tail call void @llvm.memset.p0.i64(ptr noundef nonnull align 8 dereferenceable(24) %14, i8 0, i64 24, i1 false)
  %15 = load ptr, ptr getelementptr inbounds nuw (i8, ptr @file_caddy_t_class, i64 40), align 8, !tbaa !58
  %16 = load ptr, ptr %15, align 8, !tbaa !59
  %.not6.i.i = icmp eq ptr %16, null
  br i1 %.not6.i.i, label %pmix_obj_new_tma.exit, label %.lr.ph.i.i

.lr.ph.i.i:                                       ; preds = %9, %.lr.ph.i.i
  %17 = phi ptr [ %19, %.lr.ph.i.i ], [ %16, %9 ]
  %.07.i.i = phi ptr [ %18, %.lr.ph.i.i ], [ %15, %9 ]
  tail call void %17(ptr noundef nonnull %4) #13
  %18 = getelementptr inbounds nuw i8, ptr %.07.i.i, i64 8
  %19 = load ptr, ptr %18, align 8, !tbaa !59
  %.not.i.i = icmp eq ptr %19, null
  br i1 %.not.i.i, label %pmix_obj_new_tma.exit, label %.lr.ph.i.i, !llvm.loop !60

pmix_obj_new_tma.exit:                            ; preds = %.lr.ph.i.i, %8, %9
  %20 = tail call i32 @pthread_mutex_lock(ptr noundef %0) #13
  %21 = icmp eq i32 %20, 35
  br i1 %21, label %22, label %pmix_obj_update.exit

22:                                               ; preds = %pmix_obj_new_tma.exit
  %23 = tail call ptr @__errno_location() #16
  store i32 35, ptr %23, align 4, !tbaa !54
  tail call void @perror(ptr noundef nonnull @.str.2) #17
  tail call void @abort() #18
  unreachable

pmix_obj_update.exit:                             ; preds = %pmix_obj_new_tma.exit
  %24 = getelementptr inbounds nuw i8, ptr %0, i64 48
  %25 = load i32, ptr %24, align 8, !tbaa !57
  %26 = add nsw i32 %25, 1
  store i32 %26, ptr %24, align 8, !tbaa !57
  %27 = tail call i32 @pthread_mutex_unlock(ptr noundef %0) #13
  %28 = getelementptr inbounds nuw i8, ptr %4, i64 248
  store ptr %0, ptr %28, align 8, !tbaa !81
  %.not = icmp eq ptr %1, null
  br i1 %.not, label %32, label %29

29:                                               ; preds = %pmix_obj_update.exit
  %30 = tail call noalias ptr @strdup(ptr noundef nonnull %1) #13
  %31 = getelementptr inbounds nuw i8, ptr %4, i64 256
  store ptr %30, ptr %31, align 8, !tbaa !83
  br label %32

32:                                               ; preds = %29, %pmix_obj_update.exit
  %33 = getelementptr inbounds nuw i8, ptr %4, i64 120
  %34 = load ptr, ptr getelementptr inbounds nuw (i8, ptr @pmix_psensor_base, i64 272), align 8, !tbaa !79
  %35 = tail call i32 @pmix_event_assign(ptr noundef nonnull %33, ptr noundef %34, i32 noundef -1, i16 noundef signext 4, ptr noundef nonnull @del_tracker, ptr noundef nonnull %4) #13
  fence release
  tail call void @event_active(ptr noundef nonnull %33, i32 noundef 4, i16 noundef signext 1) #13
  ret i32 0
}